Certificate:
    Data:
        Version: 3 (0x2)
        Serial Number: 1 (0x1)
        Signature Algorithm: sha256WithRSAEncryption
        Issuer: CN=devcert
        Validity
            Not Before: Apr 27 13:14:13 2020 GMT
            Not After : Jul 31 13:14:13 2022 GMT
        Subject: CN=localhost
        Subject Public Key Info:
            Public Key Algorithm: rsaEncryption
                RSA Public-Key: (2048 bit)
                Modulus:
                    00:9e:de:33:85:1f:3c:6b:c1:a2:bd:39:ef:6b:76:
                    50:24:af:22:37:c2:26:38:e6:96:08:65:ca:e4:50:
                    88:af:60:89:0a:e0:dd:80:1c:7a:eb:2a:27:a6:45:
                    a6:69:dc:26:5f:e0:c8:e3:9a:bb:0a:bf:f9:07:62:
                    f3:79:f4:47:ea:3f:96:c3:69:7a:cf:fb:26:d2:f2:
                    f7:51:bc:a5:6c:5e:77:22:c1:3b:68:43:2e:67:51:
                    02:95:f8:45:08:77:da:6c:5d:17:a7:9c:1a:62:63:
                    6b:a2:09:8e:5d:a8:20:1d:f9:8d:e2:cd:95:d5:ab:
                    2c:2e:93:27:32:4b:e2:a5:66:57:6c:9a:e2:47:12:
                    f1:d5:b2:e3:07:cb:ea:c0:7f:c2:d7:b1:84:92:3a:
                    a9:bb:b1:f4:df:ca:28:f3:54:73:27:43:dd:65:ac:
                    21:bc:c1:d1:76:3f:c3:5d:50:20:03:2e:a4:64:a8:
                    b6:bd:fe:f7:37:25:6a:f8:a8:1b:87:ea:31:b6:e5:
                    8d:1c:44:fa:2e:5d:76:4d:27:e4:21:41:6f:d4:5b:
                    27:93:6c:10:b3:aa:38:5f:b4:50:7a:37:5d:32:43:
                    7b:c1:5c:8d:07:f6:a7:68:42:eb:dc:f5:d7:c6:53:
                    8c:85:56:b2:bb:c2:b1:d4:63:fe:6d:8b:95:07:03:
                    40:9b
                Exponent: 65537 (0x10001)
        X509v3 extensions:
            X509v3 Basic Constraints: critical
                CA:FALSE
            X509v3 Subject Key Identifier: 
                38:B1:CF:1C:EB:33:AD:6A:A7:9A:AE:22:1F:9D:64:54:2A:66:16:9F
            X509v3 Authority Key Identifier: 
                keyid:21:11:C0:18:D6:73:DD:88:61:91:40:7D:81:44:1D:CE:8C:1F:6F:28
                DirName:/CN=devcert
                serial:0E:F2:FC:1F:82:08:E2:F0:0E:85:2B:50:09:46:6D:41:58:47:F9:36

            X509v3 Key Usage: critical
                Digital Signature, Key Encipherment
            X509v3 Extended Key Usage: 
                TLS Web Server Authentication
            X509v3 Subject Alternative Name: 
                DNS:localhost, DNS:*.localhost
    Signature Algorithm: sha256WithRSAEncryption
         74:e5:08:5f:00:8a:73:76:06:76:9a:4e:82:a3:05:d8:b4:e0:
         80:ac:c9:e7:cc:44:9c:a6:80:76:17:f5:4e:3d:f3:c4:d8:30:
         38:9b:f0:dc:4c:46:d4:77:a1:ad:f5:17:ca:81:70:e4:a0:6d:
         bf:94:b2:70:29:4b:f3:24:9c:fd:60:b7:3f:ae:97:7a:1c:60:
         61:c3:e8:08:aa:43:fc:37:c3:76:2b:78:e5:62:43:a3:11:e4:
         01:c2:4c:55:7a:c7:b8:7b:51:4b:ed:0d:df:98:6c:b1:28:fe:
         e3:13:67:75:0b:59:90:06:f3:4f:20:0b:fa:4a:9e:33:0c:ab:
         1c:ca:71:b2:e1:5d:5a:95:65:e9:63:7d:63:5f:60:ec:bd:77:
         71:c2:be:7e:35:08:13:44:ad:27:9d:0d:aa:65:d4:9a:dc:27:
         15:0d:74:8c:47:6f:bd:90:c1:00:da:55:32:27:9e:78:a8:63:
         8a:93:a6:c5:2b:c1:50:ed:4d:2c:9e:d1:32:60:9f:7f:94:5b:
         e7:73:5f:04:5e:9e:80:a1:5d:67:8b:fb:3b:12:cd:72:bb:30:
         b3:8f:07:6d:bf:4b:ba:2c:03:97:11:66:8e:be:1b:86:7b:92:
         8d:29:06:0d:e8:4d:c6:4b:5b:18:b7:3e:93:cf:50:f5:1e:12:
         1e:fe:c0:88
-----BEGIN CERTIFICATE-----
MIIDaTCCAlGgAwIBAgIBATANBgkqhkiG9w0BAQsFADASMRAwDgYDVQQDDAdkZXZj
ZXJ0MB4XDTIwMDQyNzEzMTQxM1oXDTIyMDczMTEzMTQxM1owFDESMBAGA1UEAwwJ
bG9jYWxob3N0MIIBIjANBgkqhkiG9w0BAQEFAAOCAQ8AMIIBCgKCAQEAnt4zhR88
a8GivTnva3ZQJK8iN8ImOOaWCGXK5FCIr2CJCuDdgBx66yonpkWmadwmX+DI45q7
Cr/5B2LzefRH6j+Ww2l6z/sm0vL3UbylbF53IsE7aEMuZ1EClfhFCHfabF0Xp5wa
YmNrogmOXaggHfmN4s2V1assLpMnMkvipWZXbJriRxLx1bLjB8vqwH/C17GEkjqp
u7H038oo81RzJ0PdZawhvMHRdj/DXVAgAy6kZKi2vf73NyVq+Kgbh+oxtuWNHET6
Ll12TSfkIUFv1Fsnk2wQs6o4X7RQejddMkN7wVyNB/anaELr3PXXxlOMhVayu8Kx
1GP+bYuVBwNAmwIDAQABo4HHMIHEMAwGA1UdEwEB/wQCMAAwHQYDVR0OBBYEFDix
zxzrM61qp5quIh+dZFQqZhafME0GA1UdIwRGMESAFCERwBjWc92IYZFAfYFEHc6M
H28ooRakFDASMRAwDgYDVQQDDAdkZXZjZXJ0ghQO8vwfggji8A6FK1AJRm1BWEf5
NjAOBgNVHQ8BAf8EBAMCBaAwEwYDVR0lBAwwCgYIKwYBBQUHAwEwIQYDVR0RBBow
GIIJbG9jYWxob3N0ggsqLmxvY2FsaG9zdDANBgkqhkiG9w0BAQsFAAOCAQEAdOUI
XwCKc3YGdppOgqMF2LTggKzJ58xEnKaAdhf1Tj3zxNgwOJvw3ExG1HehrfUXyoFw
5KBtv5SycClL8ySc/WC3P66XehxgYcPoCKpD/DfDdit45WJDoxHkAcJMVXrHuHtR
S+0N35hssSj+4xNndQtZkAbzTyAL+kqeMwyrHMpxsuFdWpVl6WN9Y19g7L13ccK+
fjUIE0StJ50NqmXUmtwnFQ10jEdvvZDBANpVMieeeKhjipOmxSvBUO1NLJ7RMmCf
f5Rb53NfBF6egKFdZ4v7OxLNcrsws48Hbb9LuiwDlxFmjr4bhnuSjSkGDehNxktb
GLc+k89Q9R4SHv7AiA==
-----END CERTIFICATE-----
