Certificate:
    Data:
        Version: 3 (0x2)
        Serial Number: 1 (0x1)
        Signature Algorithm: sha256WithRSAEncryption
        Issuer: CN=devcert
        Validity
            Not Before: May  1 13:37:06 2020 GMT
            Not After : Aug  4 13:37:06 2022 GMT
        Subject: CN=localhost
        Subject Public Key Info:
            Public Key Algorithm: rsaEncryption
                RSA Public-Key: (2048 bit)
                Modulus:
                    00:c0:81:f0:97:ed:f9:34:4e:54:0e:72:87:29:4a:
                    d9:25:cc:0d:27:7c:7d:a2:cd:b2:ea:9f:87:da:ec:
                    b0:bc:00:71:92:1e:6d:f6:27:3a:10:91:dd:49:a6:
                    39:21:15:08:c3:a2:fe:75:ce:05:aa:90:d3:fe:29:
                    a7:bd:58:47:7a:73:b5:9f:4d:ab:de:45:07:dd:15:
                    d4:da:25:1f:53:69:a7:45:13:30:a6:7f:fd:33:ed:
                    00:e9:95:fb:ff:c6:71:ad:15:95:da:e0:97:14:3d:
                    93:03:de:d8:34:29:95:9e:89:5f:c8:26:4c:cf:d5:
                    ac:1b:aa:9d:f7:bb:5f:00:f8:cc:20:40:17:bf:c5:
                    ea:d0:1c:0b:de:4d:cc:4a:7a:63:aa:79:c8:58:41:
                    e9:27:e0:ee:1c:41:36:33:3d:b7:21:5d:b2:f1:38:
                    f6:f5:be:50:01:75:72:ca:d6:67:4a:67:ac:80:d2:
                    37:30:9b:e6:61:cb:38:c2:5e:73:b2:30:cc:2d:10:
                    f0:94:e6:26:14:a1:10:f1:13:b4:36:65:88:da:ef:
                    0e:61:7f:4d:9a:32:91:ba:b8:23:29:5c:f2:4e:ef:
                    c0:56:ae:32:29:ae:3b:6a:3e:73:8a:80:c8:c8:2a:
                    70:83:cc:71:fd:c2:06:f3:bc:d5:01:7f:fa:a8:27:
                    52:01
                Exponent: 65537 (0x10001)
        X509v3 extensions:
            X509v3 Basic Constraints: critical
                CA:FALSE
            X509v3 Subject Key Identifier: 
                7E:D6:B7:05:9A:1D:09:25:DD:9C:F8:97:2A:F8:F6:4F:48:8D:FA:31
            X509v3 Authority Key Identifier: 
                keyid:32:DB:25:61:A2:E6:F4:79:14:4E:5B:A9:B3:3C:E6:04:D6:A1:81:5B
                DirName:/CN=devcert
                serial:47:2C:A8:E9:35:D1:3B:FC:BC:AC:26:E2:56:7B:50:B5:56:A2:B0:C3

            X509v3 Key Usage: critical
                Digital Signature, Key Encipherment
            X509v3 Extended Key Usage: 
                TLS Web Server Authentication
            X509v3 Subject Alternative Name: 
                DNS:localhost, DNS:*.localhost
    Signature Algorithm: sha256WithRSAEncryption
         8e:b3:56:a2:fc:ae:be:92:a2:51:73:c6:5b:bd:e3:84:91:ed:
         cb:2c:e6:83:eb:27:59:f3:d0:4d:e0:b6:54:db:11:77:16:dc:
         15:03:8f:29:58:8d:6f:64:9d:02:a3:f2:44:63:69:1e:f8:76:
         01:84:4a:df:3f:ed:20:63:ba:ac:7d:5c:33:f4:db:e0:82:8b:
         4e:d8:09:09:b6:33:94:ae:1a:b9:ea:1d:ea:27:c8:69:46:51:
         16:0e:2c:a7:15:99:4e:df:72:7b:18:a6:af:f9:22:4d:29:80:
         88:8a:e3:40:c6:3f:5d:e6:33:41:92:46:0e:c5:c5:bf:a9:84:
         03:70:d3:4f:e1:59:f7:02:0c:e1:79:0e:06:28:13:a7:44:d6:
         2e:a3:e1:89:8b:17:38:d1:d0:b8:32:0c:2f:de:07:23:a6:c9:
         87:f1:e1:76:e7:dd:01:a6:7b:60:ef:54:59:01:91:7d:93:6a:
         d7:44:a7:7f:57:4c:a8:7f:41:d8:9e:75:49:2e:5c:08:d8:16:
         fc:3c:90:60:cf:4c:71:90:35:0b:29:ba:ff:90:90:9c:a2:be:
         9f:01:c5:d3:2a:5e:d5:74:21:dd:51:37:be:db:ae:c8:7a:58:
         2e:b5:a7:a0:6a:f3:78:0c:9b:f8:f8:57:00:4b:f5:a3:c5:b8:
         a3:0a:28:31
-----BEGIN CERTIFICATE-----
MIIDaTCCAlGgAwIBAgIBATANBgkqhkiG9w0BAQsFADASMRAwDgYDVQQDDAdkZXZj
ZXJ0MB4XDTIwMDUwMTEzMzcwNloXDTIyMDgwNDEzMzcwNlowFDESMBAGA1UEAwwJ
bG9jYWxob3N0MIIBIjANBgkqhkiG9w0BAQEFAAOCAQ8AMIIBCgKCAQEAwIHwl+35
NE5UDnKHKUrZJcwNJ3x9os2y6p+H2uywvABxkh5t9ic6EJHdSaY5IRUIw6L+dc4F
qpDT/imnvVhHenO1n02r3kUH3RXU2iUfU2mnRRMwpn/9M+0A6ZX7/8ZxrRWV2uCX
FD2TA97YNCmVnolfyCZMz9WsG6qd97tfAPjMIEAXv8Xq0BwL3k3MSnpjqnnIWEHp
J+DuHEE2Mz23IV2y8Tj29b5QAXVyytZnSmesgNI3MJvmYcs4wl5zsjDMLRDwlOYm
FKEQ8RO0NmWI2u8OYX9NmjKRurgjKVzyTu/AVq4yKa47aj5zioDIyCpwg8xx/cIG
87zVAX/6qCdSAQIDAQABo4HHMIHEMAwGA1UdEwEB/wQCMAAwHQYDVR0OBBYEFH7W
twWaHQkl3Zz4lyr49k9IjfoxME0GA1UdIwRGMESAFDLbJWGi5vR5FE5bqbM85gTW
oYFboRakFDASMRAwDgYDVQQDDAdkZXZjZXJ0ghRHLKjpNdE7/LysJuJWe1C1VqKw
wzAOBgNVHQ8BAf8EBAMCBaAwEwYDVR0lBAwwCgYIKwYBBQUHAwEwIQYDVR0RBBow
GIIJbG9jYWxob3N0ggsqLmxvY2FsaG9zdDANBgkqhkiG9w0BAQsFAAOCAQEAjrNW
ovyuvpKiUXPGW73jhJHtyyzmg+snWfPQTeC2VNsRdxbcFQOPKViNb2SdAqPyRGNp
Hvh2AYRK3z/tIGO6rH1cM/Tb4IKLTtgJCbYzlK4aueod6ifIaUZRFg4spxWZTt9y
eximr/kiTSmAiIrjQMY/XeYzQZJGDsXFv6mEA3DTT+FZ9wIM4XkOBigTp0TWLqPh
iYsXONHQuDIML94HI6bJh/HhdufdAaZ7YO9UWQGRfZNq10Snf1dMqH9B2J51SS5c
CNgW/DyQYM9McZA1Cym6/5CQnKK+nwHF0ype1XQh3VE3vtuuyHpYLrWnoGrzeAyb
+PhXAEv1o8W4owooMQ==
-----END CERTIFICATE-----
