Certificate:
    Data:
        Version: 3 (0x2)
        Serial Number: 1 (0x1)
    Signature Algorithm: sha256WithRSAEncryption
        Issuer: CN=devcert
        Validity
            Not Before: May  1 08:39:45 2020 GMT
            Not After : Aug  4 08:39:45 2022 GMT
        Subject: CN=localhost
        Subject Public Key Info:
            Public Key Algorithm: rsaEncryption
                Public-Key: (2048 bit)
                Modulus:
                    00:ba:70:d6:e4:81:5d:c6:27:5c:da:36:bd:24:ba:
                    ae:38:50:ca:19:d0:ae:80:e9:aa:b1:ad:60:24:c5:
                    71:42:4e:51:cb:e4:aa:b8:ac:39:c8:0d:f5:b5:07:
                    88:2a:6b:72:35:58:7d:63:d8:45:e9:ac:00:3f:f1:
                    da:85:e2:a1:ea:39:23:0e:36:ca:77:a4:25:b8:30:
                    4a:6e:82:77:af:94:6f:44:c6:48:0c:3c:77:a8:1a:
                    3e:e9:c0:0c:5d:fb:1b:13:6a:ac:16:48:48:84:81:
                    d1:eb:9b:3f:41:e8:bc:9b:58:9f:f8:54:8e:fb:99:
                    29:38:b2:63:d9:ea:a5:6b:53:16:63:e4:42:be:29:
                    cf:e4:d1:3d:1e:19:d1:e6:6a:b6:bc:58:eb:12:f7:
                    3c:07:3c:c2:eb:fc:a3:c4:99:93:54:bf:31:95:84:
                    65:2d:08:e0:01:cb:93:8c:cc:4f:38:69:18:e5:6c:
                    d8:ed:e7:68:10:07:93:3d:9d:f2:bf:32:c6:3d:55:
                    86:34:40:92:95:bd:5f:ed:23:d7:00:11:34:6f:d9:
                    9b:5e:5e:f4:2d:2c:11:4b:81:8a:22:3e:3e:14:7d:
                    94:08:b3:8b:c9:e9:3b:2e:73:fc:96:2f:c5:0d:3a:
                    22:2a:dd:cc:30:f3:ee:f5:58:1d:42:71:3b:e3:9d:
                    01:fb
                Exponent: 65537 (0x10001)
        X509v3 extensions:
            X509v3 Basic Constraints: critical
                CA:FALSE
            X509v3 Subject Key Identifier: 
                10:BF:23:97:77:77:40:DA:DE:28:37:6E:DD:90:BD:F2:EF:85:8E:C1
            X509v3 Authority Key Identifier: 
                keyid:57:CD:6C:BE:45:AF:A9:62:92:BD:81:69:68:FC:72:2A:34:C5:9B:56
                DirName:/CN=devcert
                serial:C4:D3:F5:97:7F:DA:33:67

            X509v3 Key Usage: critical
                Digital Signature, Key Encipherment
            X509v3 Extended Key Usage: 
                TLS Web Server Authentication
            X509v3 Subject Alternative Name: 
                DNS:localhost, DNS:*.localhost
    Signature Algorithm: sha256WithRSAEncryption
         a8:95:d4:6e:17:e9:65:4f:57:d0:e2:a4:7c:a3:c7:b2:89:f3:
         ad:68:33:00:f8:9b:6f:6c:23:54:d7:10:32:3a:84:b0:9b:03:
         97:74:23:35:1e:a9:9e:c9:86:5e:6e:0e:20:16:52:31:17:c1:
         c7:af:c7:27:3d:45:3d:7e:68:97:d7:2e:e5:93:71:c4:6f:19:
         d7:ef:b0:54:b6:0e:69:07:b4:ab:f8:e4:5f:48:1b:ea:5e:32:
         d6:c7:5f:38:22:d0:f2:fb:d6:0a:14:9b:ba:04:25:cb:5a:78:
         a4:ec:4a:24:6c:f3:14:31:a9:92:78:30:f2:c1:a8:0b:3d:2c:
         6e:3e:15:a2:5e:aa:fb:cc:4a:1d:e5:b4:06:b1:87:1d:27:9c:
         b4:fe:09:f9:d1:2d:66:73:f7:88:d5:76:bb:99:8b:97:e0:fd:
         46:0e:16:65:24:bd:30:0a:3d:e0:b3:71:48:91:35:f9:d7:e5:
         0f:1b:bf:7d:93:70:7c:e8:bb:f8:1c:48:50:16:8f:6e:4b:86:
         ef:ff:9e:bd:c2:52:91:9a:97:62:aa:e8:67:51:1b:c1:82:2f:
         78:94:3f:c9:51:c9:5b:97:59:33:8e:37:91:e7:80:01:35:0c:
         fb:e1:99:63:56:e4:ba:ee:db:1e:4b:7e:67:ed:f3:69:32:d1:
         0d:01:ec:a3
-----BEGIN CERTIFICATE-----
MIIDXjCCAkagAwIBAgIBATANBgkqhkiG9w0BAQsFADASMRAwDgYDVQQDDAdkZXZj
ZXJ0MB4XDTIwMDUwMTA4Mzk0NVoXDTIyMDgwNDA4Mzk0NVowFDESMBAGA1UEAwwJ
bG9jYWxob3N0MIIBIjANBgkqhkiG9w0BAQEFAAOCAQ8AMIIBCgKCAQEAunDW5IFd
xidc2ja9JLquOFDKGdCugOmqsa1gJMVxQk5Ry+SquKw5yA31tQeIKmtyNVh9Y9hF
6awAP/HaheKh6jkjDjbKd6QluDBKboJ3r5RvRMZIDDx3qBo+6cAMXfsbE2qsFkhI
hIHR65s/Qei8m1if+FSO+5kpOLJj2eqla1MWY+RCvinP5NE9HhnR5mq2vFjrEvc8
BzzC6/yjxJmTVL8xlYRlLQjgAcuTjMxPOGkY5WzY7edoEAeTPZ3yvzLGPVWGNECS
lb1f7SPXABE0b9mbXl70LSwRS4GKIj4+FH2UCLOLyek7LnP8li/FDToiKt3MMPPu
9VgdQnE7450B+wIDAQABo4G8MIG5MAwGA1UdEwEB/wQCMAAwHQYDVR0OBBYEFBC/
I5d3d0Da3ig3bt2QvfLvhY7BMEIGA1UdIwQ7MDmAFFfNbL5Fr6likr2BaWj8cio0
xZtWoRakFDASMRAwDgYDVQQDDAdkZXZjZXJ0ggkAxNP1l3/aM2cwDgYDVR0PAQH/
BAQDAgWgMBMGA1UdJQQMMAoGCCsGAQUFBwMBMCEGA1UdEQQaMBiCCWxvY2FsaG9z
dIILKi5sb2NhbGhvc3QwDQYJKoZIhvcNAQELBQADggEBAKiV1G4X6WVPV9DipHyj
x7KJ861oMwD4m29sI1TXEDI6hLCbA5d0IzUeqZ7Jhl5uDiAWUjEXwcevxyc9RT1+
aJfXLuWTccRvGdfvsFS2DmkHtKv45F9IG+peMtbHXzgi0PL71goUm7oEJctaeKTs
SiRs8xQxqZJ4MPLBqAs9LG4+FaJeqvvMSh3ltAaxhx0nnLT+CfnRLWZz94jVdruZ
i5fg/UYOFmUkvTAKPeCzcUiRNfnX5Q8bv32TcHzou/gcSFAWj25Lhu//nr3CUpGa
l2Kq6GdRG8GCL3iUP8lRyVuXWTOON5HngAE1DPvhmWNW5Lru2x5Lfmft82ky0Q0B
7KM=
-----END CERTIFICATE-----
