Certificate:
    Data:
        Version: 3 (0x2)
        Serial Number: 1 (0x1)
    Signature Algorithm: sha256WithRSAEncryption
        Issuer: CN=devcert
        Validity
            Not Before: Apr 27 09:08:16 2020 GMT
            Not After : Jul 31 09:08:16 2022 GMT
        Subject: CN=localhost
        Subject Public Key Info:
            Public Key Algorithm: rsaEncryption
                Public-Key: (2048 bit)
                Modulus:
                    00:b9:1e:c2:28:ed:bf:9d:ce:3b:14:32:bd:fc:9a:
                    fe:f2:3d:a7:0c:46:26:11:1c:a8:d7:fe:b0:a0:f0:
                    b1:42:9e:17:53:29:aa:b3:e7:f8:89:21:6b:17:3b:
                    7c:ef:94:c3:57:f3:58:19:b2:28:aa:a4:12:b2:1e:
                    e9:81:dd:3e:7e:5e:de:c6:77:6a:19:3c:b6:b2:aa:
                    29:71:9d:ab:d5:56:89:26:fe:46:4d:4b:60:fe:f6:
                    32:2b:0c:f8:bd:5e:28:e1:af:58:d2:f8:8a:98:f9:
                    6c:2a:b2:82:c0:55:bf:66:1e:d2:78:79:a8:db:4b:
                    27:88:f6:2b:93:b5:35:7f:e8:bb:17:15:8b:f9:14:
                    35:3b:e7:5d:7b:60:91:59:7d:14:31:d9:d6:23:f2:
                    78:6e:c9:63:41:91:31:c5:8c:88:9e:95:33:eb:da:
                    07:d9:3b:bf:d6:3a:e5:a2:87:57:57:de:95:aa:5b:
                    2f:25:17:4a:78:2a:d8:22:e3:a9:83:3d:a4:77:5e:
                    0f:cc:51:c0:47:09:e2:ed:a2:4e:ba:68:1b:7f:22:
                    f9:9a:88:9a:f5:e0:45:e7:cf:8f:bc:8d:ec:0b:a1:
                    45:ca:8c:8b:dd:bd:28:dc:67:30:31:2e:33:44:a3:
                    76:72:99:c8:fe:d9:8c:7d:74:b4:3d:79:3e:17:46:
                    b9:3b
                Exponent: 65537 (0x10001)
        X509v3 extensions:
            X509v3 Basic Constraints: critical
                CA:FALSE
            X509v3 Subject Key Identifier: 
                FF:87:CF:D9:B5:1D:EC:D6:85:41:F7:05:D1:73:F2:F7:50:42:7E:97
            X509v3 Authority Key Identifier: 
                keyid:CC:B4:1E:1D:DB:82:09:CB:6E:24:2A:18:15:8D:AA:43:1E:94:1E:C5
                DirName:/CN=devcert
                serial:FF:9C:FA:D0:49:8A:63:EE

            X509v3 Key Usage: critical
                Digital Signature, Key Encipherment
            X509v3 Extended Key Usage: 
                TLS Web Server Authentication
            X509v3 Subject Alternative Name: 
                DNS:localhost, DNS:*.localhost
    Signature Algorithm: sha256WithRSAEncryption
         57:83:3a:b0:ee:91:b8:b4:ff:4f:09:58:69:1a:81:d9:ab:ec:
         a3:df:81:5c:b5:f3:fd:67:b5:4e:e1:d7:01:3f:62:e5:4e:43:
         7a:97:9e:69:19:9b:31:ce:0f:02:8c:46:06:7a:6d:f7:03:8d:
         5d:ea:3a:44:c3:e4:a6:c9:0d:ba:25:ec:d5:8d:40:83:5c:43:
         7b:b7:e9:1a:fa:4c:c5:dc:26:16:8b:8e:8a:03:46:12:2f:3e:
         11:72:2f:80:41:62:f1:06:31:03:fc:bf:eb:e9:d0:26:b1:f6:
         8a:84:81:10:7e:93:94:28:24:4d:82:fd:c9:9d:26:3d:b6:12:
         93:fe:25:c7:17:c5:58:5a:1f:81:f8:d3:2a:9d:49:11:91:e5:
         79:17:61:32:ee:c4:b3:18:83:8d:6a:60:f8:3c:6e:09:21:2c:
         6a:65:b3:2c:52:3d:b9:a3:72:b0:ce:6b:85:43:78:23:97:f4:
         27:a9:30:ba:97:78:1e:23:02:dd:7b:30:eb:a1:77:9d:d6:95:
         b2:84:a7:2a:7b:75:e2:66:1e:d9:7c:3b:c2:2c:a6:5e:8e:34:
         4d:de:3c:e2:01:f4:8e:e1:02:9f:2d:0e:06:a2:90:73:df:e5:
         d5:6b:93:c7:42:86:78:da:de:0e:48:1f:ee:38:4f:c6:eb:6f:
         b9:e4:05:d9
-----BEGIN CERTIFICATE-----
MIIDXjCCAkagAwIBAgIBATANBgkqhkiG9w0BAQsFADASMRAwDgYDVQQDDAdkZXZj
ZXJ0MB4XDTIwMDQyNzA5MDgxNloXDTIyMDczMTA5MDgxNlowFDESMBAGA1UEAwwJ
bG9jYWxob3N0MIIBIjANBgkqhkiG9w0BAQEFAAOCAQ8AMIIBCgKCAQEAuR7CKO2/
nc47FDK9/Jr+8j2nDEYmERyo1/6woPCxQp4XUymqs+f4iSFrFzt875TDV/NYGbIo
qqQSsh7pgd0+fl7exndqGTy2sqopcZ2r1VaJJv5GTUtg/vYyKwz4vV4o4a9Y0viK
mPlsKrKCwFW/Zh7SeHmo20sniPYrk7U1f+i7FxWL+RQ1O+dde2CRWX0UMdnWI/J4
bsljQZExxYyInpUz69oH2Tu/1jrloodXV96VqlsvJRdKeCrYIuOpgz2kd14PzFHA
Rwni7aJOumgbfyL5moia9eBF58+PvI3sC6FFyoyL3b0o3GcwMS4zRKN2cpnI/tmM
fXS0PXk+F0a5OwIDAQABo4G8MIG5MAwGA1UdEwEB/wQCMAAwHQYDVR0OBBYEFP+H
z9m1HezWhUH3BdFz8vdQQn6XMEIGA1UdIwQ7MDmAFMy0Hh3bggnLbiQqGBWNqkMe
lB7FoRakFDASMRAwDgYDVQQDDAdkZXZjZXJ0ggkA/5z60EmKY+4wDgYDVR0PAQH/
BAQDAgWgMBMGA1UdJQQMMAoGCCsGAQUFBwMBMCEGA1UdEQQaMBiCCWxvY2FsaG9z
dIILKi5sb2NhbGhvc3QwDQYJKoZIhvcNAQELBQADggEBAFeDOrDukbi0/08JWGka
gdmr7KPfgVy18/1ntU7h1wE/YuVOQ3qXnmkZmzHODwKMRgZ6bfcDjV3qOkTD5KbJ
Dbol7NWNQINcQ3u36Rr6TMXcJhaLjooDRhIvPhFyL4BBYvEGMQP8v+vp0Cax9oqE
gRB+k5QoJE2C/cmdJj22EpP+JccXxVhaH4H40yqdSRGR5XkXYTLuxLMYg41qYPg8
bgkhLGplsyxSPbmjcrDOa4VDeCOX9CepMLqXeB4jAt17MOuhd53WlbKEpyp7deJm
Htl8O8Ispl6ONE3ePOIB9I7hAp8tDgaikHPf5dVrk8dChnja3g5IH+44T8brb7nk
Bdk=
-----END CERTIFICATE-----
